target datalayout = "e-m:e-p270:32:32-p271:32:32-p272:64:64-i64:64-i128:128-f80:128-n8:16:32:64-S128"
target triple = "x86_64-pc-linux-gnu"

%struct.psa_crypto_local_output_s = type { ptr, ptr, i64 }
%struct.psa_hash_operation_s = type { i32, %union.psa_driver_hash_context_t }
%union.psa_driver_hash_context_t = type { %struct.mbedtls_psa_hash_operation_t }
%struct.mbedtls_psa_hash_operation_t = type { i32, %union.anon.1 }
%union.anon.1 = type { %struct.mbedtls_sha512_context }
%struct.mbedtls_sha512_context = type { [2 x i64], [8 x i64], [128 x i8], i32 }

; Function Attrs: inlinehint nounwind uwtable
define internal i32 @psa_driver_wrapper_hash_abort(ptr noundef %0) #6 {
  %2 = alloca i32, align 4
  %3 = alloca ptr, align 8
  store ptr %0, ptr %3, align 8, !tbaa !71
  %4 = load ptr, ptr %3, align 8, !tbaa !71
  %5 = getelementptr inbounds nuw %struct.psa_hash_operation_s, ptr %4, i32 0, i32 0
  %6 = load i32, ptr %5, align 8, !tbaa !73
  switch i32 %6, label %11 [
    i32 1, label %7
  ]

7:                                                ; preds = %1
  %8 = load ptr, ptr %3, align 8, !tbaa !71
  %9 = getelementptr inbounds nuw %struct.psa_hash_operation_s, ptr %8, i32 0, i32 1
  %10 = call i32 @mbedtls_psa_hash_abort(ptr noundef %9)
  store i32 %10, ptr %2, align 4
  br label %12

11:                                               ; preds = %1
  store i32 -137, ptr %2, align 4
  br label %12

12:                                               ; preds = %11, %7
  %13 = load i32, ptr %2, align 4
  ret i32 %13
}

; Function Attrs: nounwind uwtable
define internal i32 @psa_crypto_copy_output(ptr noundef %0, i64 noundef %1, ptr noundef %2, i64 noundef %3) #0 {
  %5 = alloca i32, align 4
  %6 = alloca ptr, align 8
  %7 = alloca i64, align 8
  %8 = alloca ptr, align 8
  %9 = alloca i64, align 8
  store ptr %0, ptr %6, align 8, !tbaa !29
  store i64 %1, ptr %7, align 8, !tbaa !20
  store ptr %2, ptr %8, align 8, !tbaa !29
  store i64 %3, ptr %9, align 8, !tbaa !20
  %10 = load i64, ptr %9, align 8, !tbaa !20
  %11 = load i64, ptr %7, align 8, !tbaa !20
  %12 = icmp ult i64 %10, %11
  br i1 %12, label %13, label %14

13:                                               ; preds = %4
  store i32 -138, ptr %5, align 4
  br label %22

14:                                               ; preds = %4
  %15 = load i64, ptr %7, align 8, !tbaa !20
  %16 = icmp ugt i64 %15, 0
  br i1 %16, label %17, label %21

17:                                               ; preds = %14
  %18 = load ptr, ptr %8, align 8, !tbaa !29
  %19 = load ptr, ptr %6, align 8, !tbaa !29
  %20 = load i64, ptr %7, align 8, !tbaa !20
  call void @llvm.memcpy.p0.p0.i64(ptr align 1 %18, ptr align 1 %19, i64 %20, i1 false)
  br label %21

21:                                               ; preds = %17, %14
  store i32 0, ptr %5, align 4
  br label %22

22:                                               ; preds = %21, %13
  %23 = load i32, ptr %5, align 4
  ret i32 %23
}

; Function Attrs: nounwind uwtable
define hidden i32 @psa_hash_abort(ptr noundef %0) #0 {
  %2 = alloca i32, align 4
  %3 = alloca ptr, align 8
  %4 = alloca i32, align 4
  store ptr %0, ptr %3, align 8, !tbaa !71
  %5 = load ptr, ptr %3, align 8, !tbaa !71
  %6 = getelementptr inbounds nuw %struct.psa_hash_operation_s, ptr %5, i32 0, i32 0
  %7 = load i32, ptr %6, align 8, !tbaa !73
  %8 = icmp eq i32 %7, 0
  br i1 %8, label %9, label %10

9:                                                ; preds = %1
  store i32 0, ptr %2, align 4
  br label %16

10:                                               ; preds = %1
  call void @llvm.lifetime.start.p0(i64 4, ptr %4) #8
  %11 = load ptr, ptr %3, align 8, !tbaa !71
  %12 = call i32 @psa_driver_wrapper_hash_abort(ptr noundef %11)
  store i32 %12, ptr %4, align 4, !tbaa !3
  %13 = load ptr, ptr %3, align 8, !tbaa !71
  %14 = getelementptr inbounds nuw %struct.psa_hash_operation_s, ptr %13, i32 0, i32 0
  store i32 0, ptr %14, align 8, !tbaa !73
  %15 = load i32, ptr %4, align 4, !tbaa !3
  store i32 %15, ptr %2, align 4
  call void @llvm.lifetime.end.p0(i64 4, ptr %4) #8
  br label %16

16:                                               ; preds = %10, %9
  %17 = load i32, ptr %2, align 4
  ret i32 %17
}

; Function Attrs: inlinehint nounwind uwtable
define internal i32 @psa_driver_wrapper_hash_finish(ptr noundef %0, ptr noundef %1, i64 noundef %2, ptr noundef %3) #6 {
  %5 = alloca i32, align 4
  %6 = alloca ptr, align 8
  %7 = alloca ptr, align 8
  %8 = alloca i64, align 8
  %9 = alloca ptr, align 8
  store ptr %0, ptr %6, align 8, !tbaa !71
  store ptr %1, ptr %7, align 8, !tbaa !29
  store i64 %2, ptr %8, align 8, !tbaa !20
  store ptr %3, ptr %9, align 8, !tbaa !32
  %10 = load ptr, ptr %6, align 8, !tbaa !71
  %11 = getelementptr inbounds nuw %struct.psa_hash_operation_s, ptr %10, i32 0, i32 0
  %12 = load i32, ptr %11, align 8, !tbaa !73
  switch i32 %12, label %20 [
    i32 1, label %13
  ]

13:                                               ; preds = %4
  %14 = load ptr, ptr %6, align 8, !tbaa !71
  %15 = getelementptr inbounds nuw %struct.psa_hash_operation_s, ptr %14, i32 0, i32 1
  %16 = load ptr, ptr %7, align 8, !tbaa !29
  %17 = load i64, ptr %8, align 8, !tbaa !20
  %18 = load ptr, ptr %9, align 8, !tbaa !32
  %19 = call i32 @mbedtls_psa_hash_finish(ptr noundef %15, ptr noundef %16, i64 noundef %17, ptr noundef %18)
  store i32 %19, ptr %5, align 4
  br label %21

20:                                               ; preds = %4
  store i32 -137, ptr %5, align 4
  br label %21

21:                                               ; preds = %20, %13
  %22 = load i32, ptr %5, align 4
  ret i32 %22
}

; Function Attrs: nounwind uwtable
define hidden i32 @psa_crypto_local_output_free(ptr noundef %0) #0 {
  %2 = alloca i32, align 4
  %3 = alloca ptr, align 8
  %4 = alloca i32, align 4
  %5 = alloca i32, align 4
  store ptr %0, ptr %3, align 8, !tbaa !46
  call void @llvm.lifetime.start.p0(i64 4, ptr %4) #8
  %6 = load ptr, ptr %3, align 8, !tbaa !46
  %7 = getelementptr inbounds nuw %struct.psa_crypto_local_output_s, ptr %6, i32 0, i32 1
  %8 = load ptr, ptr %7, align 8, !tbaa !44
  %9 = icmp eq ptr %8, null
  br i1 %9, label %10, label %13

10:                                               ; preds = %1
  %11 = load ptr, ptr %3, align 8, !tbaa !46
  %12 = getelementptr inbounds nuw %struct.psa_crypto_local_output_s, ptr %11, i32 0, i32 2
  store i64 0, ptr %12, align 8, !tbaa !49
  store i32 0, ptr %2, align 4
  store i32 1, ptr %5, align 4
  br label %45

13:                                               ; preds = %1
  %14 = load ptr, ptr %3, align 8, !tbaa !46
  %15 = getelementptr inbounds nuw %struct.psa_crypto_local_output_s, ptr %14, i32 0, i32 0
  %16 = load ptr, ptr %15, align 8, !tbaa !50
  %17 = icmp eq ptr %16, null
  br i1 %17, label %18, label %19

18:                                               ; preds = %13
  store i32 -151, ptr %2, align 4
  store i32 1, ptr %5, align 4
  br label %45

19:                                               ; preds = %13
  %20 = load ptr, ptr %3, align 8, !tbaa !46
  %21 = getelementptr inbounds nuw %struct.psa_crypto_local_output_s, ptr %20, i32 0, i32 1
  %22 = load ptr, ptr %21, align 8, !tbaa !44
  %23 = load ptr, ptr %3, align 8, !tbaa !46
  %24 = getelementptr inbounds nuw %struct.psa_crypto_local_output_s, ptr %23, i32 0, i32 2
  %25 = load i64, ptr %24, align 8, !tbaa !49
  %26 = load ptr, ptr %3, align 8, !tbaa !46
  %27 = getelementptr inbounds nuw %struct.psa_crypto_local_output_s, ptr %26, i32 0, i32 0
  %28 = load ptr, ptr %27, align 8, !tbaa !50
  %29 = load ptr, ptr %3, align 8, !tbaa !46
  %30 = getelementptr inbounds nuw %struct.psa_crypto_local_output_s, ptr %29, i32 0, i32 2
  %31 = load i64, ptr %30, align 8, !tbaa !49
  %32 = call i32 @psa_crypto_copy_output(ptr noundef %22, i64 noundef %25, ptr noundef %28, i64 noundef %31)
  store i32 %32, ptr %4, align 4, !tbaa !3
  %33 = load i32, ptr %4, align 4, !tbaa !3
  %34 = icmp ne i32 %33, 0
  br i1 %34, label %35, label %37

35:                                               ; preds = %19
  %36 = load i32, ptr %4, align 4, !tbaa !3
  store i32 %36, ptr %2, align 4
  store i32 1, ptr %5, align 4
  br label %45

37:                                               ; preds = %19
  %38 = load ptr, ptr %3, align 8, !tbaa !46
  %39 = getelementptr inbounds nuw %struct.psa_crypto_local_output_s, ptr %38, i32 0, i32 1
  %40 = load ptr, ptr %39, align 8, !tbaa !44
  call void @free(ptr noundef %40) #8
  %41 = load ptr, ptr %3, align 8, !tbaa !46
  %42 = getelementptr inbounds nuw %struct.psa_crypto_local_output_s, ptr %41, i32 0, i32 1
  store ptr null, ptr %42, align 8, !tbaa !44
  %43 = load ptr, ptr %3, align 8, !tbaa !46
  %44 = getelementptr inbounds nuw %struct.psa_crypto_local_output_s, ptr %43, i32 0, i32 2
  store i64 0, ptr %44, align 8, !tbaa !49
  store i32 0, ptr %2, align 4
  store i32 1, ptr %5, align 4
  br label %45

45:                                               ; preds = %37, %35, %18, %10
  call void @llvm.lifetime.end.p0(i64 4, ptr %4) #8
  %46 = load i32, ptr %2, align 4
  ret i32 %46
}

; Function Attrs: nounwind uwtable
define internal i32 @psa_hash_finish_internal(ptr noundef %0, ptr noundef %1, i64 noundef %2, ptr noundef %3) #0 {
  %5 = alloca i32, align 4
  %6 = alloca ptr, align 8
  %7 = alloca ptr, align 8
  %8 = alloca i64, align 8
  %9 = alloca ptr, align 8
  %10 = alloca i32, align 4
  %11 = alloca i32, align 4
  store ptr %0, ptr %6, align 8, !tbaa !71
  store ptr %1, ptr %7, align 8, !tbaa !29
  store i64 %2, ptr %8, align 8, !tbaa !20
  store ptr %3, ptr %9, align 8, !tbaa !32
  call void @llvm.lifetime.start.p0(i64 4, ptr %10) #8
  store i32 -151, ptr %10, align 4, !tbaa !3
  %12 = load ptr, ptr %9, align 8, !tbaa !32
  store i64 0, ptr %12, align 8, !tbaa !20
  %13 = load ptr, ptr %6, align 8, !tbaa !71
  %14 = getelementptr inbounds nuw %struct.psa_hash_operation_s, ptr %13, i32 0, i32 0
  %15 = load i32, ptr %14, align 8, !tbaa !73
  %16 = icmp eq i32 %15, 0
  br i1 %16, label %17, label %18

17:                                               ; preds = %4
  store i32 -137, ptr %5, align 4
  store i32 1, ptr %11, align 4
  br label %27

18:                                               ; preds = %4
  %19 = load ptr, ptr %6, align 8, !tbaa !71
  %20 = load ptr, ptr %7, align 8, !tbaa !29
  %21 = load i64, ptr %8, align 8, !tbaa !20
  %22 = load ptr, ptr %9, align 8, !tbaa !32
  %23 = call i32 @psa_driver_wrapper_hash_finish(ptr noundef %19, ptr noundef %20, i64 noundef %21, ptr noundef %22)
  store i32 %23, ptr %10, align 4, !tbaa !3
  %24 = load ptr, ptr %6, align 8, !tbaa !71
  %25 = call i32 @psa_hash_abort(ptr noundef %24)
  %26 = load i32, ptr %10, align 4, !tbaa !3
  store i32 %26, ptr %5, align 4
  store i32 1, ptr %11, align 4
  br label %27

27:                                               ; preds = %18, %17
  call void @llvm.lifetime.end.p0(i64 4, ptr %10) #8
  %28 = load i32, ptr %5, align 4
  ret i32 %28
}

; Function Attrs: nounwind uwtable
define hidden i32 @psa_crypto_local_output_alloc(ptr noundef %0, i64 noundef %1, ptr noundef %2) #0 {
  %4 = alloca i32, align 4
  %5 = alloca ptr, align 8
  %6 = alloca i64, align 8
  %7 = alloca ptr, align 8
  %8 = alloca %struct.psa_crypto_local_output_s, align 8
  store ptr %0, ptr %5, align 8, !tbaa !29
  store i64 %1, ptr %6, align 8, !tbaa !20
  store ptr %2, ptr %7, align 8, !tbaa !46
  %9 = load ptr, ptr %7, align 8, !tbaa !46
  call void @llvm.memset.p0.i64(ptr align 8 %8, i8 0, i64 24, i1 false)
  call void @llvm.memcpy.p0.p0.i64(ptr align 8 %9, ptr align 8 %8, i64 24, i1 false), !tbaa.struct !48
  %10 = load i64, ptr %6, align 8, !tbaa !20
  %11 = icmp eq i64 %10, 0
  br i1 %11, label %12, label %13

12:                                               ; preds = %3
  store i32 0, ptr %4, align 4
  br label %30

13:                                               ; preds = %3
  %14 = load i64, ptr %6, align 8, !tbaa !20
  %15 = call noalias ptr @calloc(i64 noundef %14, i64 noundef 1) #9
  %16 = load ptr, ptr %7, align 8, !tbaa !46
  %17 = getelementptr inbounds nuw %struct.psa_crypto_local_output_s, ptr %16, i32 0, i32 1
  store ptr %15, ptr %17, align 8, !tbaa !44
  %18 = load ptr, ptr %7, align 8, !tbaa !46
  %19 = getelementptr inbounds nuw %struct.psa_crypto_local_output_s, ptr %18, i32 0, i32 1
  %20 = load ptr, ptr %19, align 8, !tbaa !44
  %21 = icmp eq ptr %20, null
  br i1 %21, label %22, label %23

22:                                               ; preds = %13
  store i32 -141, ptr %4, align 4
  br label %30

23:                                               ; preds = %13
  %24 = load i64, ptr %6, align 8, !tbaa !20
  %25 = load ptr, ptr %7, align 8, !tbaa !46
  %26 = getelementptr inbounds nuw %struct.psa_crypto_local_output_s, ptr %25, i32 0, i32 2
  store i64 %24, ptr %26, align 8, !tbaa !49
  %27 = load ptr, ptr %5, align 8, !tbaa !29
  %28 = load ptr, ptr %7, align 8, !tbaa !46
  %29 = getelementptr inbounds nuw %struct.psa_crypto_local_output_s, ptr %28, i32 0, i32 0
  store ptr %27, ptr %29, align 8, !tbaa !50
  store i32 0, ptr %4, align 4
  br label %30

30:                                               ; preds = %23, %22, %12
  %31 = load i32, ptr %4, align 4
  ret i32 %31
}

; Function Attrs: nounwind uwtable
define hidden i32 @psa_hash_finish(ptr noundef %0, ptr noundef %1, i64 noundef %2, ptr noundef %3) #0 {
  %5 = alloca ptr, align 8
  %6 = alloca ptr, align 8
  %7 = alloca i64, align 8
  %8 = alloca ptr, align 8
  %9 = alloca i32, align 4
  %10 = alloca %struct.psa_crypto_local_output_s, align 8
  %11 = alloca ptr, align 8
  %12 = alloca i32, align 4
  store ptr %0, ptr %5, align 8, !tbaa !71
  store ptr %1, ptr %6, align 8, !tbaa !29
  store i64 %2, ptr %7, align 8, !tbaa !20
  store ptr %3, ptr %8, align 8, !tbaa !32
  call void @llvm.lifetime.start.p0(i64 4, ptr %9) #8
  store i32 -151, ptr %9, align 4, !tbaa !3
  call void @llvm.lifetime.start.p0(i64 24, ptr %10) #8
  call void @llvm.memset.p0.i64(ptr align 8 %10, i8 0, i64 24, i1 false)
  call void @llvm.lifetime.start.p0(i64 8, ptr %11) #8
  store ptr null, ptr %11, align 8, !tbaa !29
  %13 = load ptr, ptr %6, align 8, !tbaa !29
  %14 = load i64, ptr %7, align 8, !tbaa !20
  %15 = call i32 @psa_crypto_local_output_alloc(ptr noundef %13, i64 noundef %14, ptr noundef %10)
  store i32 %15, ptr %9, align 4, !tbaa !3
  %16 = load i32, ptr %9, align 4, !tbaa !3
  %17 = icmp ne i32 %16, 0
  br i1 %17, label %18, label %19

18:                                               ; preds = %4
  br label %27

19:                                               ; preds = %4
  %20 = getelementptr inbounds nuw %struct.psa_crypto_local_output_s, ptr %10, i32 0, i32 1
  %21 = load ptr, ptr %20, align 8, !tbaa !44
  store ptr %21, ptr %11, align 8, !tbaa !29
  %22 = load ptr, ptr %5, align 8, !tbaa !71
  %23 = load ptr, ptr %11, align 8, !tbaa !29
  %24 = load i64, ptr %7, align 8, !tbaa !20
  %25 = load ptr, ptr %8, align 8, !tbaa !32
  %26 = call i32 @psa_hash_finish_internal(ptr noundef %22, ptr noundef %23, i64 noundef %24, ptr noundef %25)
  store i32 %26, ptr %9, align 4, !tbaa !3
  br label %27

27:                                               ; preds = %19, %18
  store ptr null, ptr %11, align 8, !tbaa !29
  br label %28

28:                                               ; preds = %27
  call void @llvm.lifetime.start.p0(i64 4, ptr %12) #8
  %29 = call i32 @psa_crypto_local_output_free(ptr noundef %10)
  store i32 %29, ptr %12, align 4, !tbaa !3
  %30 = load i32, ptr %12, align 4, !tbaa !3
  %31 = icmp ne i32 %30, 0
  br i1 %31, label %32, label %34

32:                                               ; preds = %28
  %33 = load i32, ptr %12, align 4, !tbaa !3
  store i32 %33, ptr %9, align 4, !tbaa !3
  br label %34

34:                                               ; preds = %32, %28
  call void @llvm.lifetime.end.p0(i64 4, ptr %12) #8
  br label %35

35:                                               ; preds = %34
  br label %36

36:                                               ; preds = %35
  %37 = load i32, ptr %9, align 4, !tbaa !3
  call void @llvm.lifetime.end.p0(i64 8, ptr %11) #8
  call void @llvm.lifetime.end.p0(i64 24, ptr %10) #8
  call void @llvm.lifetime.end.p0(i64 4, ptr %9) #8
  ret i32 %37
}