; Function Attrs: nounwind uwtable
define hidden i32 @psa_hash_finish(ptr noundef %0, ptr noundef writeonly %1, i64 noundef %2, ptr noundef %3) local_unnamed_addr #7 {
  %5 = icmp eq i64 %2, 0
  br i1 %5, label %9, label %6

6:                                                ; preds = %4
  %7 = tail call noalias ptr @calloc(i64 noundef %2, i64 noundef 1) #21
  %8 = icmp eq ptr %7, null
  br i1 %8, label %psa_crypto_local_output_free.exit, label %9

9:                                                ; preds = %6, %4
  %.sroa.0.0.ph = phi ptr [ null, %4 ], [ %1, %6 ]
  %.sroa.6.0.ph = phi ptr [ null, %4 ], [ %7, %6 ]
  store i64 0, ptr %3, align 8, !tbaa !25
  %10 = load i32, ptr %0, align 8, !tbaa !53
  switch i32 %10, label %psa_driver_wrapper_hash_finish.exit.i [
    i32 0, label %psa_crypto_local_output_alloc.exit
    i32 1, label %11
  ]

11:                                               ; preds = %9
  %12 = getelementptr inbounds nuw i8, ptr %0, i64 8
  %13 = tail call i32 @mbedtls_psa_hash_finish(ptr noundef nonnull %12, ptr noundef %.sroa.6.0.ph, i64 noundef %2, ptr noundef nonnull %3) #22
  %.pr.i = load i32, ptr %0, align 8, !tbaa !53
  br label %psa_driver_wrapper_hash_finish.exit.i

psa_driver_wrapper_hash_finish.exit.i:            ; preds = %11, %9
  %14 = phi i32 [ %.pr.i, %11 ], [ %10, %9 ]
  %.0.i.i = phi i32 [ %13, %11 ], [ -137, %9 ]
  switch i32 %14, label %psa_driver_wrapper_hash_abort.exit.i.i [
    i32 0, label %psa_crypto_local_output_alloc.exit
    i32 1, label %15
  ]

15:                                               ; preds = %psa_driver_wrapper_hash_finish.exit.i
  %16 = getelementptr inbounds nuw i8, ptr %0, i64 8
  %17 = tail call i32 @mbedtls_psa_hash_abort(ptr noundef nonnull %16) #22
  br label %psa_driver_wrapper_hash_abort.exit.i.i

psa_driver_wrapper_hash_abort.exit.i.i:           ; preds = %15, %psa_driver_wrapper_hash_finish.exit.i
  store i32 0, ptr %0, align 8, !tbaa !53
  br label %psa_crypto_local_output_alloc.exit

psa_crypto_local_output_alloc.exit:               ; preds = %psa_driver_wrapper_hash_abort.exit.i.i, %psa_driver_wrapper_hash_finish.exit.i, %9
  %.0 = phi i32 [ -137, %9 ], [ %.0.i.i, %psa_driver_wrapper_hash_finish.exit.i ], [ %.0.i.i, %psa_driver_wrapper_hash_abort.exit.i.i ]
  %18 = icmp eq ptr %.sroa.6.0.ph, null
  br i1 %18, label %psa_crypto_local_output_free.exit, label %19

19:                                               ; preds = %psa_crypto_local_output_alloc.exit
  %20 = icmp eq ptr %.sroa.0.0.ph, null
  br i1 %20, label %psa_crypto_local_output_free.exit, label %21

21:                                               ; preds = %19
  br i1 %5, label %psa_crypto_copy_output.exit.i, label %22

22:                                               ; preds = %21
  tail call void @llvm.memcpy.p0.p0.i64(ptr nonnull align 1 %.sroa.0.0.ph, ptr nonnull readonly align 1 %.sroa.6.0.ph, i64 %2, i1 false)
  br label %psa_crypto_copy_output.exit.i

psa_crypto_copy_output.exit.i:                    ; preds = %22, %21
  tail call void @free(ptr noundef nonnull %.sroa.6.0.ph) #22
  br label %psa_crypto_local_output_free.exit

psa_crypto_local_output_free.exit:                ; preds = %6, %psa_crypto_local_output_alloc.exit, %psa_crypto_copy_output.exit.i, %19
  %23 = phi i32 [ -151, %19 ], [ %.0, %psa_crypto_local_output_alloc.exit ], [ %.0, %psa_crypto_copy_output.exit.i ], [ -141, %6 ]
  ret i32 %23
}